target datalayout = "e-m:e-p270:32:32-p271:32:32-p272:64:64-i64:64-i128:128-f80:128-n8:16:32:64-S128"
target triple = "x86_64-pc-linux-gnu"

%struct.archive_write = type { %struct.archive, i32, i64, i64, ptr, i64, ptr, ptr, ptr, ptr, ptr, i32, i32, ptr, ptr, ptr, ptr, ptr, ptr, ptr, ptr, ptr, ptr, ptr, ptr, ptr, ptr }
%struct.archive = type { i32, i32, ptr, i32, ptr, i32, i32, ptr, %struct.archive_string, ptr, i32, i32, ptr, ptr, i64, i64, i64, i8, i64 }
%struct.archive_string = type { ptr, i64, i64 }
%struct._7zip = type { i32, i64, ptr, i64, i64, i64, i64, i64, [3 x i64], i64, i64, i64, i32, i32, i32, i32, i32, i32, %struct.la_zstream, %struct.coder, ptr, [61440 x i8], i64, %struct.anon, %struct.anon, %struct.archive_rb_tree }
%struct.la_zstream = type { ptr, i64, i64, ptr, i64, i64, i32, ptr, i32, ptr, ptr, ptr }
%struct.coder = type { i32, i64, ptr }
%struct.anon = type { ptr, ptr }
%struct.archive_rb_tree = type { ptr, ptr }

@.str.45 = private unnamed_addr constant [31 x i8] c"Couldn't create temporary file\00", align 1
@.str.46 = private unnamed_addr constant [23 x i8] c"fwrite function failed\00", align 1

; Function Attrs: nounwind uwtable
define internal i32 @write_to_temp(ptr noundef %0, ptr noundef %1, i64 noundef %2) #0 {
  %4 = alloca i32, align 4
  %5 = alloca ptr, align 8
  %6 = alloca ptr, align 8
  %7 = alloca i64, align 8
  %8 = alloca ptr, align 8
  %9 = alloca ptr, align 8
  %10 = alloca i64, align 8
  store ptr %0, ptr %5, align 8
  store ptr %1, ptr %6, align 8
  store i64 %2, ptr %7, align 8
  %11 = load ptr, ptr %5, align 8
  %12 = getelementptr inbounds %struct.archive_write, ptr %11, i32 0, i32 15
  %13 = load ptr, ptr %12, align 8
  store ptr %13, ptr %8, align 8
  %14 = load ptr, ptr %8, align 8
  %15 = getelementptr inbounds %struct._7zip, ptr %14, i32 0, i32 0
  %16 = load i32, ptr %15, align 8
  %17 = icmp eq i32 %16, -1
  br i1 %17, label %18, label %34

18:                                               ; preds = %3
  %19 = load ptr, ptr %8, align 8
  %20 = getelementptr inbounds %struct._7zip, ptr %19, i32 0, i32 1
  store i64 0, ptr %20, align 8
  %21 = call i32 @__archive_mktemp(ptr noundef null)
  %22 = load ptr, ptr %8, align 8
  %23 = getelementptr inbounds %struct._7zip, ptr %22, i32 0, i32 0
  store i32 %21, ptr %23, align 8
  %24 = load ptr, ptr %8, align 8
  %25 = getelementptr inbounds %struct._7zip, ptr %24, i32 0, i32 0
  %26 = load i32, ptr %25, align 8
  %27 = icmp slt i32 %26, 0
  br i1 %27, label %28, label %33

28:                                               ; preds = %18
  %29 = load ptr, ptr %5, align 8
  %30 = getelementptr inbounds %struct.archive_write, ptr %29, i32 0, i32 0
  %31 = call ptr @__errno_location() #11
  %32 = load i32, ptr %31, align 4
  call void (ptr, i32, ptr, ...) @archive_set_error(ptr noundef %30, i32 noundef %32, ptr noundef @.str.45)
  store i32 -30, ptr %4, align 4
  br label %66

33:                                               ; preds = %18
  br label %34

34:                                               ; preds = %33, %3
  %35 = load ptr, ptr %6, align 8
  store ptr %35, ptr %9, align 8
  br label %36

36:                                               ; preds = %53, %34
  %37 = load i64, ptr %7, align 8
  %38 = icmp ne i64 %37, 0
  br i1 %38, label %39, label %65

39:                                               ; preds = %36
  %40 = load ptr, ptr %8, align 8
  %41 = getelementptr inbounds %struct._7zip, ptr %40, i32 0, i32 0
  %42 = load i32, ptr %41, align 8
  %43 = load ptr, ptr %9, align 8
  %44 = load i64, ptr %7, align 8
  %45 = call i64 @write(i32 noundef %42, ptr noundef %43, i64 noundef %44)
  store i64 %45, ptr %10, align 8
  %46 = load i64, ptr %10, align 8
  %47 = icmp slt i64 %46, 0
  br i1 %47, label %48, label %53

48:                                               ; preds = %39
  %49 = load ptr, ptr %5, align 8
  %50 = getelementptr inbounds %struct.archive_write, ptr %49, i32 0, i32 0
  %51 = call ptr @__errno_location() #11
  %52 = load i32, ptr %51, align 4
  call void (ptr, i32, ptr, ...) @archive_set_error(ptr noundef %50, i32 noundef %52, ptr noundef @.str.46)
  store i32 -30, ptr %4, align 4
  br label %66

53:                                               ; preds = %39
  %54 = load i64, ptr %10, align 8
  %55 = load i64, ptr %7, align 8
  %56 = sub i64 %55, %54
  store i64 %56, ptr %7, align 8
  %57 = load i64, ptr %10, align 8
  %58 = load ptr, ptr %9, align 8
  %59 = getelementptr inbounds i8, ptr %58, i64 %57
  store ptr %59, ptr %9, align 8
  %60 = load i64, ptr %10, align 8
  %61 = load ptr, ptr %8, align 8
  %62 = getelementptr inbounds %struct._7zip, ptr %61, i32 0, i32 1
  %63 = load i64, ptr %62, align 8
  %64 = add i64 %63, %60
  store i64 %64, ptr %62, align 8
  br label %36, !llvm.loop !10

65:                                               ; preds = %36
  store i32 0, ptr %4, align 4
  br label %66

66:                                               ; preds = %65, %48, %28
  %67 = load i32, ptr %4, align 4
  ret i32 %67
}

; Function Attrs: nounwind uwtable
define internal i32 @compression_code(ptr noundef %0, ptr noundef %1, i32 noundef %2) #0 {
  %4 = alloca i32, align 4
  %5 = alloca ptr, align 8
  %6 = alloca ptr, align 8
  %7 = alloca i32, align 4
  store ptr %0, ptr %5, align 8
  store ptr %1, ptr %6, align 8
  store i32 %2, ptr %7, align 4
  %8 = load ptr, ptr %6, align 8
  %9 = getelementptr inbounds %struct.la_zstream, ptr %8, i32 0, i32 8
  %10 = load i32, ptr %9, align 8
  %11 = icmp ne i32 %10, 0
  br i1 %11, label %12, label %20

12:                                               ; preds = %3
  %13 = load ptr, ptr %6, align 8
  %14 = getelementptr inbounds %struct.la_zstream, ptr %13, i32 0, i32 10
  %15 = load ptr, ptr %14, align 8
  %16 = load ptr, ptr %5, align 8
  %17 = load ptr, ptr %6, align 8
  %18 = load i32, ptr %7, align 4
  %19 = call i32 %15(ptr noundef %16, ptr noundef %17, i32 noundef %18)
  store i32 %19, ptr %4, align 4
  br label %21

20:                                               ; preds = %3
  store i32 0, ptr %4, align 4
  br label %21

21:                                               ; preds = %20, %12
  %22 = load i32, ptr %4, align 4
  ret i32 %22
}

; Function Attrs: nounwind uwtable
define internal i64 @compress_out(ptr noundef %0, ptr noundef %1, i64 noundef %2, i32 noundef %3) #0 {
  %5 = alloca i64, align 8
  %6 = alloca ptr, align 8
  %7 = alloca ptr, align 8
  %8 = alloca i64, align 8
  %9 = alloca i32, align 4
  %10 = alloca ptr, align 8
  %11 = alloca i32, align 4
  %12 = alloca i64, align 8
  store ptr %0, ptr %6, align 8
  store ptr %1, ptr %7, align 8
  store i64 %2, ptr %8, align 8
  store i32 %3, ptr %9, align 4
  %13 = load ptr, ptr %6, align 8
  %14 = getelementptr inbounds %struct.archive_write, ptr %13, i32 0, i32 15
  %15 = load ptr, ptr %14, align 8
  store ptr %15, ptr %10, align 8
  %16 = load i32, ptr %9, align 4
  %17 = icmp eq i32 %16, 0
  br i1 %17, label %18, label %28

18:                                               ; preds = %4
  %19 = load ptr, ptr %10, align 8
  %20 = getelementptr inbounds %struct._7zip, ptr %19, i32 0, i32 18
  %21 = getelementptr inbounds %struct.la_zstream, ptr %20, i32 0, i32 2
  %22 = load i64, ptr %21, align 8
  %23 = icmp eq i64 %22, 0
  br i1 %23, label %24, label %28

24:                                               ; preds = %18
  %25 = load i64, ptr %8, align 8
  %26 = icmp eq i64 %25, 0
  br i1 %26, label %27, label %28

27:                                               ; preds = %24
  store i64 0, ptr %5, align 8
  br label %171

28:                                               ; preds = %24, %18, %4
  %29 = load ptr, ptr %10, align 8
  %30 = getelementptr inbounds %struct._7zip, ptr %29, i32 0, i32 15
  %31 = load i32, ptr %30, align 4
  %32 = and i32 %31, 1
  %33 = icmp ne i32 %32, 0
  br i1 %33, label %34, label %49

34:                                               ; preds = %28
  %35 = load i64, ptr %8, align 8
  %36 = icmp ne i64 %35, 0
  br i1 %36, label %37, label %49

37:                                               ; preds = %34
  %38 = load ptr, ptr %10, align 8
  %39 = getelementptr inbounds %struct._7zip, ptr %38, i32 0, i32 13
  %40 = load i32, ptr %39, align 4
  %41 = zext i32 %40 to i64
  %42 = load ptr, ptr %7, align 8
  %43 = load i64, ptr %8, align 8
  %44 = trunc i64 %43 to i32
  %45 = call i64 @cm_zlib_crc32(i64 noundef %41, ptr noundef %42, i32 noundef %44)
  %46 = trunc i64 %45 to i32
  %47 = load ptr, ptr %10, align 8
  %48 = getelementptr inbounds %struct._7zip, ptr %47, i32 0, i32 13
  store i32 %46, ptr %48, align 4
  br label %49

49:                                               ; preds = %37, %34, %28
  %50 = load ptr, ptr %7, align 8
  %51 = load ptr, ptr %10, align 8
  %52 = getelementptr inbounds %struct._7zip, ptr %51, i32 0, i32 18
  %53 = getelementptr inbounds %struct.la_zstream, ptr %52, i32 0, i32 0
  store ptr %50, ptr %53, align 8
  %54 = load i64, ptr %8, align 8
  %55 = load ptr, ptr %10, align 8
  %56 = getelementptr inbounds %struct._7zip, ptr %55, i32 0, i32 18
  %57 = getelementptr inbounds %struct.la_zstream, ptr %56, i32 0, i32 1
  store i64 %54, ptr %57, align 8
  br label %58

58:                                               ; preds = %127, %118, %49
  %59 = load ptr, ptr %6, align 8
  %60 = getelementptr inbounds %struct.archive_write, ptr %59, i32 0, i32 0
  %61 = load ptr, ptr %10, align 8
  %62 = getelementptr inbounds %struct._7zip, ptr %61, i32 0, i32 18
  %63 = load i32, ptr %9, align 4
  %64 = call i32 @compression_code(ptr noundef %60, ptr noundef %62, i32 noundef %63)
  store i32 %64, ptr %11, align 4
  %65 = load i32, ptr %11, align 4
  %66 = icmp ne i32 %65, 0
  br i1 %66, label %67, label %71

67:                                               ; preds = %58
  %68 = load i32, ptr %11, align 4
  %69 = icmp ne i32 %68, 1
  br i1 %69, label %70, label %71

70:                                               ; preds = %67
  store i64 -30, ptr %5, align 8
  br label %171

71:                                               ; preds = %67, %58
  %72 = load ptr, ptr %10, align 8
  %73 = getelementptr inbounds %struct._7zip, ptr %72, i32 0, i32 18
  %74 = getelementptr inbounds %struct.la_zstream, ptr %73, i32 0, i32 4
  %75 = load i64, ptr %74, align 8
  %76 = icmp eq i64 %75, 0
  br i1 %76, label %77, label %120

77:                                               ; preds = %71
  %78 = load ptr, ptr %6, align 8
  %79 = load ptr, ptr %10, align 8
  %80 = getelementptr inbounds %struct._7zip, ptr %79, i32 0, i32 21
  %81 = getelementptr inbounds [61440 x i8], ptr %80, i64 0, i64 0
  %82 = call i32 @write_to_temp(ptr noundef %78, ptr noundef %81, i64 noundef 61440)
  %83 = icmp ne i32 %82, 0
  br i1 %83, label %84, label %85

84:                                               ; preds = %77
  store i64 -30, ptr %5, align 8
  br label %171

85:                                               ; preds = %77
  %86 = load ptr, ptr %10, align 8
  %87 = getelementptr inbounds %struct._7zip, ptr %86, i32 0, i32 21
  %88 = getelementptr inbounds [61440 x i8], ptr %87, i64 0, i64 0
  %89 = load ptr, ptr %10, align 8
  %90 = getelementptr inbounds %struct._7zip, ptr %89, i32 0, i32 18
  %91 = getelementptr inbounds %struct.la_zstream, ptr %90, i32 0, i32 3
  store ptr %88, ptr %91, align 8
  %92 = load ptr, ptr %10, align 8
  %93 = getelementptr inbounds %struct._7zip, ptr %92, i32 0, i32 18
  %94 = getelementptr inbounds %struct.la_zstream, ptr %93, i32 0, i32 4
  store i64 61440, ptr %94, align 8
  %95 = load ptr, ptr %10, align 8
  %96 = getelementptr inbounds %struct._7zip, ptr %95, i32 0, i32 15
  %97 = load i32, ptr %96, align 4
  %98 = and i32 %97, 2
  %99 = icmp ne i32 %98, 0
  br i1 %99, label %100, label %112

100:                                              ; preds = %85
  %101 = load ptr, ptr %10, align 8
  %102 = getelementptr inbounds %struct._7zip, ptr %101, i32 0, i32 14
  %103 = load i32, ptr %102, align 8
  %104 = zext i32 %103 to i64
  %105 = load ptr, ptr %10, align 8
  %106 = getelementptr inbounds %struct._7zip, ptr %105, i32 0, i32 21
  %107 = getelementptr inbounds [61440 x i8], ptr %106, i64 0, i64 0
  %108 = call i64 @cm_zlib_crc32(i64 noundef %104, ptr noundef %107, i32 noundef 61440)
  %109 = trunc i64 %108 to i32
  %110 = load ptr, ptr %10, align 8
  %111 = getelementptr inbounds %struct._7zip, ptr %110, i32 0, i32 14
  store i32 %109, ptr %111, align 8
  br label %112

112:                                              ; preds = %100, %85
  %113 = load i32, ptr %9, align 4
  %114 = icmp eq i32 %113, 0
  br i1 %114, label %115, label %119

115:                                              ; preds = %112
  %116 = load i32, ptr %11, align 4
  %117 = icmp ne i32 %116, 1
  br i1 %117, label %118, label %119

118:                                              ; preds = %115
  br label %58

119:                                              ; preds = %115, %112
  br label %120

120:                                              ; preds = %119, %71
  %121 = load ptr, ptr %10, align 8
  %122 = getelementptr inbounds %struct._7zip, ptr %121, i32 0, i32 18
  %123 = getelementptr inbounds %struct.la_zstream, ptr %122, i32 0, i32 1
  %124 = load i64, ptr %123, align 8
  %125 = icmp eq i64 %124, 0
  br i1 %125, label %126, label %127

126:                                              ; preds = %120
  br label %128

127:                                              ; preds = %120
  br label %58

128:                                              ; preds = %126
  %129 = load i32, ptr %9, align 4
  %130 = icmp eq i32 %129, 0
  br i1 %130, label %131, label %169

131:                                              ; preds = %128
  %132 = load ptr, ptr %10, align 8
  %133 = getelementptr inbounds %struct._7zip, ptr %132, i32 0, i32 18
  %134 = getelementptr inbounds %struct.la_zstream, ptr %133, i32 0, i32 4
  %135 = load i64, ptr %134, align 8
  %136 = sub i64 61440, %135
  store i64 %136, ptr %12, align 8
  %137 = load ptr, ptr %6, align 8
  %138 = load ptr, ptr %10, align 8
  %139 = getelementptr inbounds %struct._7zip, ptr %138, i32 0, i32 21
  %140 = getelementptr inbounds [61440 x i8], ptr %139, i64 0, i64 0
  %141 = load i64, ptr %12, align 8
  %142 = call i32 @write_to_temp(ptr noundef %137, ptr noundef %140, i64 noundef %141)
  %143 = icmp ne i32 %142, 0
  br i1 %143, label %144, label %145

144:                                              ; preds = %131
  store i64 -30, ptr %5, align 8
  br label %171

145:                                              ; preds = %131
  %146 = load ptr, ptr %10, align 8
  %147 = getelementptr inbounds %struct._7zip, ptr %146, i32 0, i32 15
  %148 = load i32, ptr %147, align 4
  %149 = and i32 %148, 2
  %150 = icmp ne i32 %149, 0
  br i1 %150, label %151, label %168

151:                                              ; preds = %145
  %152 = load i64, ptr %12, align 8
  %153 = icmp ne i64 %152, 0
  br i1 %153, label %154, label %168

154:                                              ; preds = %151
  %155 = load ptr, ptr %10, align 8
  %156 = getelementptr inbounds %struct._7zip, ptr %155, i32 0, i32 14
  %157 = load i32, ptr %156, align 8
  %158 = zext i32 %157 to i64
  %159 = load ptr, ptr %10, align 8
  %160 = getelementptr inbounds %struct._7zip, ptr %159, i32 0, i32 21
  %161 = getelementptr inbounds [61440 x i8], ptr %160, i64 0, i64 0
  %162 = load i64, ptr %12, align 8
  %163 = trunc i64 %162 to i32
  %164 = call i64 @cm_zlib_crc32(i64 noundef %158, ptr noundef %161, i32 noundef %163)
  %165 = trunc i64 %164 to i32
  %166 = load ptr, ptr %10, align 8
  %167 = getelementptr inbounds %struct._7zip, ptr %166, i32 0, i32 14
  store i32 %165, ptr %167, align 8
  br label %168

168:                                              ; preds = %154, %151, %145
  br label %169

169:                                              ; preds = %168, %128
  %170 = load i64, ptr %8, align 8
  store i64 %170, ptr %5, align 8
  br label %171

171:                                              ; preds = %169, %144, %84, %70, %27
  %172 = load i64, ptr %5, align 8
  ret i64 %172
}