; Function Attrs: nounwind uwtable
define internal fastcc noundef i64 @compress_out(ptr noundef %0, ptr noundef %1, i64 noundef %2, i32 noundef range(i32 0, 2) %3) unnamed_addr #0 {
  %5 = getelementptr inbounds nuw i8, ptr %0, i64 248
  %6 = load ptr, ptr %5, align 8
  %7 = icmp eq i32 %3, 0
  br i1 %7, label %8, label %12

8:                                                ; preds = %4
  %9 = getelementptr inbounds nuw i8, ptr %6, i64 152
  %10 = load i64, ptr %9, align 8
  %11 = or i64 %10, %2
  %or.cond = icmp eq i64 %11, 0
  br i1 %or.cond, label %.loopexit72, label %12

12:                                               ; preds = %8, %4
  %13 = getelementptr inbounds nuw i8, ptr %6, i64 124
  %14 = load i32, ptr %13, align 4
  %15 = and i32 %14, 1
  %16 = icmp ne i32 %15, 0
  %17 = icmp ne i64 %2, 0
  %or.cond3 = and i1 %17, %16
  br i1 %or.cond3, label %18, label %25

18:                                               ; preds = %12
  %19 = getelementptr inbounds nuw i8, ptr %6, i64 116
  %20 = load i32, ptr %19, align 4
  %21 = zext i32 %20 to i64
  %22 = trunc i64 %2 to i32
  %23 = tail call i64 @cm_zlib_crc32(i64 noundef %21, ptr noundef %1, i32 noundef %22) #18
  %24 = trunc i64 %23 to i32
  store i32 %24, ptr %19, align 4
  br label %25

25:                                               ; preds = %18, %12
  %26 = getelementptr inbounds nuw i8, ptr %6, i64 136
  store ptr %1, ptr %26, align 8
  %27 = getelementptr inbounds nuw i8, ptr %6, i64 144
  store i64 %2, ptr %27, align 8
  %28 = getelementptr inbounds nuw i8, ptr %6, i64 200
  %29 = getelementptr inbounds nuw i8, ptr %6, i64 216
  %30 = getelementptr inbounds nuw i8, ptr %6, i64 168
  %31 = getelementptr inbounds nuw i8, ptr %6, i64 264
  %32 = getelementptr inbounds nuw i8, ptr %6, i64 160
  %33 = getelementptr inbounds nuw i8, ptr %6, i64 120
  br label %.backedge

.backedge:                                        ; preds = %.backedge.backedge, %25
  %34 = load i32, ptr %28, align 8
  %.not.i = icmp eq i32 %34, 0
  br i1 %.not.i, label %compression_code.exit.thread, label %compression_code.exit

compression_code.exit:                            ; preds = %.backedge
  %35 = load ptr, ptr %29, align 8
  %36 = tail call i32 %35(ptr noundef %0, ptr noundef nonnull %26, i32 noundef range(i32 0, 2) %3) #18
  %37 = icmp ne i32 %36, 1
  %or.cond5 = icmp ugt i32 %36, 1
  br i1 %or.cond5, label %.loopexit72, label %compression_code.exit.thread

compression_code.exit.thread:                     ; preds = %.backedge, %compression_code.exit
  %38 = phi i1 [ %37, %compression_code.exit ], [ true, %.backedge ]
  %39 = load i64, ptr %30, align 8
  %40 = icmp eq i64 %39, 0
  br i1 %40, label %41, label %71

41:                                               ; preds = %compression_code.exit.thread
  %42 = load ptr, ptr %5, align 8
  %43 = load i32, ptr %42, align 8
  %44 = icmp eq i32 %43, -1
  br i1 %44, label %45, label %49

45:                                               ; preds = %41
  %46 = getelementptr inbounds nuw i8, ptr %42, i64 8
  store i64 0, ptr %46, align 8
  %47 = tail call i32 @__archive_mktemp(ptr noundef null) #18
  store i32 %47, ptr %42, align 8
  %48 = icmp slt i32 %47, 0
  br i1 %48, label %write_to_temp.exit, label %49

49:                                               ; preds = %45, %41
  %50 = getelementptr inbounds nuw i8, ptr %42, i64 8
  br label %51

51:                                               ; preds = %55, %49
  %.01924.i = phi ptr [ %31, %49 ], [ %57, %55 ]
  %.02023.i = phi i64 [ 61440, %49 ], [ %56, %55 ]
  %52 = load i32, ptr %42, align 8
  %53 = tail call i64 @write(i32 noundef %52, ptr noundef %.01924.i, i64 noundef %.02023.i) #18
  %54 = icmp slt i64 %53, 0
  br i1 %54, label %write_to_temp.exit, label %55

55:                                               ; preds = %51
  %56 = sub i64 %.02023.i, %53
  %57 = getelementptr inbounds nuw i8, ptr %.01924.i, i64 %53
  %58 = load i64, ptr %50, align 8
  %59 = add i64 %58, %53
  store i64 %59, ptr %50, align 8
  %.not.i57 = icmp eq i64 %56, 0
  br i1 %.not.i57, label %62, label %51, !llvm.loop !15

write_to_temp.exit:                               ; preds = %45, %51
  %.str.46.sink.i = phi ptr [ @.str.46, %51 ], [ @.str.45, %45 ]
  %60 = tail call ptr @__errno_location() #21
  %61 = load i32, ptr %60, align 4
  tail call void (ptr, i32, ptr, ...) @archive_set_error(ptr noundef %0, i32 noundef %61, ptr noundef nonnull %.str.46.sink.i) #18
  br label %.loopexit72

62:                                               ; preds = %55
  store ptr %31, ptr %32, align 8
  store i64 61440, ptr %30, align 8
  %63 = load i32, ptr %13, align 4
  %64 = and i32 %63, 2
  %.not55 = icmp eq i32 %64, 0
  br i1 %.not55, label %70, label %65

65:                                               ; preds = %62
  %66 = load i32, ptr %33, align 8
  %67 = zext i32 %66 to i64
  %68 = tail call i64 @cm_zlib_crc32(i64 noundef %67, ptr noundef nonnull %31, i32 noundef 61440) #18
  %69 = trunc i64 %68 to i32
  store i32 %69, ptr %33, align 8
  br label %70

70:                                               ; preds = %65, %62
  %or.cond7 = and i1 %7, %38
  br i1 %or.cond7, label %.backedge.backedge, label %71

.backedge.backedge:                               ; preds = %70, %71
  br label %.backedge

71:                                               ; preds = %70, %compression_code.exit.thread
  %72 = load i64, ptr %27, align 8
  %73 = icmp eq i64 %72, 0
  br i1 %73, label %74, label %.backedge.backedge

74:                                               ; preds = %71
  br i1 %7, label %75, label %.loopexit72

75:                                               ; preds = %74
  %76 = load i64, ptr %30, align 8
  %77 = sub i64 61440, %76
  %78 = load ptr, ptr %5, align 8
  %79 = load i32, ptr %78, align 8
  %80 = icmp eq i32 %79, -1
  br i1 %80, label %81, label %85

81:                                               ; preds = %75
  %82 = getelementptr inbounds nuw i8, ptr %78, i64 8
  store i64 0, ptr %82, align 8
  %83 = tail call i32 @__archive_mktemp(ptr noundef null) #18
  store i32 %83, ptr %78, align 8
  %84 = icmp slt i32 %83, 0
  br i1 %84, label %write_to_temp.exit65, label %85

85:                                               ; preds = %81, %75
  %.not22.i = icmp eq i64 %76, 61440
  br i1 %.not22.i, label %.loopexit72, label %.lr.ph.i

.lr.ph.i:                                         ; preds = %85
  %86 = getelementptr inbounds nuw i8, ptr %78, i64 8
  br label %87

87:                                               ; preds = %91, %.lr.ph.i
  %.01924.i59 = phi ptr [ %31, %.lr.ph.i ], [ %93, %91 ]
  %.02023.i60 = phi i64 [ %77, %.lr.ph.i ], [ %92, %91 ]
  %88 = load i32, ptr %78, align 8
  %89 = tail call i64 @write(i32 noundef %88, ptr noundef %.01924.i59, i64 noundef %.02023.i60) #18
  %90 = icmp slt i64 %89, 0
  br i1 %90, label %write_to_temp.exit65, label %91

91:                                               ; preds = %87
  %92 = sub i64 %.02023.i60, %89
  %93 = getelementptr inbounds nuw i8, ptr %.01924.i59, i64 %89
  %94 = load i64, ptr %86, align 8
  %95 = add i64 %94, %89
  store i64 %95, ptr %86, align 8
  %.not.i61 = icmp eq i64 %92, 0
  br i1 %.not.i61, label %.loopexit, label %87, !llvm.loop !15

write_to_temp.exit65:                             ; preds = %87, %81
  %.str.46.sink.i64 = phi ptr [ @.str.45, %81 ], [ @.str.46, %87 ]
  %96 = tail call ptr @__errno_location() #21
  %97 = load i32, ptr %96, align 4
  tail call void (ptr, i32, ptr, ...) @archive_set_error(ptr noundef %0, i32 noundef %97, ptr noundef nonnull %.str.46.sink.i64) #18
  br label %.loopexit72

.loopexit:                                        ; preds = %91
  %98 = load i32, ptr %13, align 4
  %99 = and i32 %98, 2
  %.not = icmp eq i32 %99, 0
  br i1 %.not, label %.loopexit72, label %100

100:                                              ; preds = %.loopexit
  %101 = load i32, ptr %33, align 8
  %102 = zext i32 %101 to i64
  %103 = trunc i64 %77 to i32
  %104 = tail call i64 @cm_zlib_crc32(i64 noundef %102, ptr noundef nonnull %31, i32 noundef %103) #18
  %105 = trunc i64 %104 to i32
  store i32 %105, ptr %33, align 8
  br label %.loopexit72

.loopexit72:                                      ; preds = %compression_code.exit, %85, %write_to_temp.exit65, %write_to_temp.exit, %74, %100, %.loopexit, %8
  %.0 = phi i64 [ 0, %8 ], [ -30, %write_to_temp.exit ], [ -30, %write_to_temp.exit65 ], [ %2, %.loopexit ], [ %2, %100 ], [ %2, %74 ], [ %2, %85 ], [ -30, %compression_code.exit ]
  ret i64 %.0
}